---
triple:          'x86_64-apple-darwin'
binary-path:     '/Users/kirillgrichanichenko/C++VSCode/Scratch/Practice/GardenProblem/main'
relocations:
  - { offsetInCU: 0x4F82, offset: 0x4F82, size: 0x8, addend: 0x0, symName: __ZNSt3__124__put_character_sequenceB8ue170006IcNS_11char_traitsIcEEEERNS_13basic_ostreamIT_T0_EES7_PKS4_m, symObjAddr: 0x2E80, symBinAddr: 0x100003D00, symSize: 0x1F0 }
  - { offsetInCU: 0x6B10, offset: 0x6B10, size: 0x8, addend: 0x0, symName: __ZNSt3__1lsB8ue170006INS_11char_traitsIcEEEERNS_13basic_ostreamIcT_EES6_PKc, symObjAddr: 0x4C0, symBinAddr: 0x100001340, symSize: 0x40 }
  - { offsetInCU: 0x6B56, offset: 0x6B56, size: 0x8, addend: 0x0, symName: __ZNSt3__1lsB8ue170006IcNS_11char_traitsIcEENS_9allocatorIcEEEERNS_13basic_ostreamIT_T0_EES9_RKNS_12basic_stringIS6_S7_T1_EE, symObjAddr: 0x500, symBinAddr: 0x100001380, symSize: 0x50 }
  - { offsetInCU: 0x6BAE, offset: 0x6BAE, size: 0x8, addend: 0x0, symName: __ZNSt3__112__to_addressB8ue170006IN6Garden5PlantEEEPT_S4_, symObjAddr: 0xB80, symBinAddr: 0x100001A00, symSize: 0x10 }
  - { offsetInCU: 0x6BE3, offset: 0x6BE3, size: 0x8, addend: 0x0, symName: __ZNSt3__13maxB8ue170006ImEERKT_S3_S3_, symObjAddr: 0xF50, symBinAddr: 0x100001DD0, symSize: 0x30 }
  - { offsetInCU: 0x6C26, offset: 0x6C26, size: 0x8, addend: 0x0, symName: __ZNSt3__13minB8ue170006ImEERKT_S3_S3_, symObjAddr: 0xF80, symBinAddr: 0x100001E00, symSize: 0x30 }
  - { offsetInCU: 0x6E6A, offset: 0x6E6A, size: 0x8, addend: 0x0, symName: __ZNSt3__13minB8ue170006ImNS_6__lessIvvEEEERKT_S5_S5_T0_, symObjAddr: 0x1000, symBinAddr: 0x100001E80, symSize: 0x50 }
  - { offsetInCU: 0x6F09, offset: 0x6F09, size: 0x8, addend: 0x0, symName: __ZNSt3__120__throw_length_errorB8ue170006EPKc, symObjAddr: 0x10E0, symBinAddr: 0x100001F60, symSize: 0x70 }
  - { offsetInCU: 0x6F33, offset: 0x6F33, size: 0x8, addend: 0x0, symName: __ZNSt3__13maxB8ue170006ImNS_6__lessIvvEEEERKT_S5_S5_T0_, symObjAddr: 0x1210, symBinAddr: 0x100002090, symSize: 0x50 }
  - { offsetInCU: 0x6F8D, offset: 0x6F8D, size: 0x8, addend: 0x0, symName: __ZNSt3__119__allocate_at_leastB8ue170006INS_9allocatorIN6Garden5PlantEEEEENS_19__allocation_resultINS_16allocator_traitsIT_E7pointerEEERS7_m, symObjAddr: 0x1350, symBinAddr: 0x1000021D0, symSize: 0x40 }
  - { offsetInCU: 0x6FD0, offset: 0x6FD0, size: 0x8, addend: 0x0, symName: __ZNSt3__117__libcpp_allocateB8ue170006Emm, symObjAddr: 0x14C0, symBinAddr: 0x100002340, symSize: 0x20 }
  - { offsetInCU: 0x700D, offset: 0x700D, size: 0x8, addend: 0x0, symName: __ZNSt3__121__libcpp_operator_newB8ue170006IJmEEEPvDpT_, symObjAddr: 0x14E0, symBinAddr: 0x100002360, symSize: 0x20 }
  - { offsetInCU: 0x7046, offset: 0x7046, size: 0x8, addend: 0x0, symName: __ZNSt3__142__uninitialized_allocator_move_if_noexceptB8ue170006INS_9allocatorIN6Garden5PlantEEENS_16reverse_iteratorIPS3_EES7_S7_EET2_RT_T0_T1_S8_, symObjAddr: 0x1610, symBinAddr: 0x100002490, symSize: 0x180 }
  - { offsetInCU: 0x70E5, offset: 0x70E5, size: 0x8, addend: 0x0, symName: __ZNSt3__14swapB8ue170006IPN6Garden5PlantEEENS_9enable_ifIXaasr21is_move_constructibleIT_EE5valuesr18is_move_assignableIS5_EE5valueEvE4typeERS5_S8_, symObjAddr: 0x17E0, symBinAddr: 0x100002660, symSize: 0x40 }
  - { offsetInCU: 0x7136, offset: 0x7136, size: 0x8, addend: 0x0, symName: __ZNSt3__122__make_exception_guardB8ue170006INS_29_AllocatorDestroyRangeReverseINS_9allocatorIN6Garden5PlantEEENS_16reverse_iteratorIPS4_EEEEEENS_28__exception_guard_exceptionsIT_EESB_, symObjAddr: 0x1900, symBinAddr: 0x100002780, symSize: 0x60 }
  - { offsetInCU: 0x716B, offset: 0x716B, size: 0x8, addend: 0x0, symName: __ZNSt3__1neB8ue170006IPN6Garden5PlantES3_EEbRKNS_16reverse_iteratorIT_EERKNS4_IT0_EE, symObjAddr: 0x19A0, symBinAddr: 0x100002820, symSize: 0x40 }
  - { offsetInCU: 0x71B7, offset: 0x71B7, size: 0x8, addend: 0x0, symName: __ZNSt3__112__to_addressB8ue170006INS_16reverse_iteratorIPN6Garden5PlantEEEvEEu7__decayIDTclsr19__to_address_helperIT_EE6__callclsr3stdE7declvalIRKS6_EEEEES8_, symObjAddr: 0x1A10, symBinAddr: 0x100002890, symSize: 0x20 }
  - { offsetInCU: 0x7216, offset: 0x7216, size: 0x8, addend: 0x0, symName: __ZNSt3__119__allocator_destroyB8ue170006INS_9allocatorIN6Garden5PlantEEENS_16reverse_iteratorINS5_IPS3_EEEES8_EEvRT_T0_T1_, symObjAddr: 0x1E00, symBinAddr: 0x100002C80, symSize: 0x70 }
  - { offsetInCU: 0x7279, offset: 0x7279, size: 0x8, addend: 0x0, symName: __ZNSt3__1neB8ue170006INS_16reverse_iteratorIPN6Garden5PlantEEES5_EEbRKNS1_IT_EERKNS1_IT0_EE, symObjAddr: 0x1EA0, symBinAddr: 0x100002D20, symSize: 0x50 }
  - { offsetInCU: 0x72C5, offset: 0x72C5, size: 0x8, addend: 0x0, symName: __ZNSt3__112__to_addressB8ue170006INS_16reverse_iteratorINS1_IPN6Garden5PlantEEEEEvEEu7__decayIDTclsr19__to_address_helperIT_EE6__callclsr3stdE7declvalIRKS7_EEEEES9_, symObjAddr: 0x1F20, symBinAddr: 0x100002DA0, symSize: 0x20 }
  - { offsetInCU: 0x7324, offset: 0x7324, size: 0x8, addend: 0x0, symName: __ZNSt3__119__libcpp_deallocateB8ue170006EPvmm, symObjAddr: 0x22E0, symBinAddr: 0x100003160, symSize: 0x30 }
  - { offsetInCU: 0x736C, offset: 0x736C, size: 0x8, addend: 0x0, symName: __ZNSt3__127__do_deallocate_handle_sizeB8ue170006IJEEEvPvmDpT_, symObjAddr: 0x2310, symBinAddr: 0x100003190, symSize: 0x20 }
  - { offsetInCU: 0x73AA, offset: 0x73AA, size: 0x8, addend: 0x0, symName: __ZNSt3__124__libcpp_operator_deleteB8ue170006IJPvEEEvDpT_, symObjAddr: 0x2330, symBinAddr: 0x1000031B0, symSize: 0x20 }
  - { offsetInCU: 0x73DF, offset: 0x73DF, size: 0x8, addend: 0x0, symName: __ZNSt3__1miB8ue170006IPKN6Garden5PlantES4_EEDTmicldtfp_4baseEcldtfp0_4baseEERKNS_11__wrap_iterIT_EERKNS6_IT0_EE, symObjAddr: 0x2410, symBinAddr: 0x100003290, symSize: 0x40 }
  - { offsetInCU: 0x742B, offset: 0x742B, size: 0x8, addend: 0x0, symName: __ZNSt3__14moveB8ue170006IPN6Garden5PlantES3_EET0_T_S5_S4_, symObjAddr: 0x24D0, symBinAddr: 0x100003350, symSize: 0x40 }
  - { offsetInCU: 0x7485, offset: 0x7485, size: 0x8, addend: 0x0, symName: __ZNSt3__16__moveB8ue170006INS_17_ClassicAlgPolicyEPN6Garden5PlantES4_S4_EENS_4pairIT0_T2_EES6_T1_S7_, symObjAddr: 0x2700, symBinAddr: 0x100003580, symSize: 0x40 }
  - { offsetInCU: 0x74F1, offset: 0x74F1, size: 0x8, addend: 0x0, symName: __ZNSt3__123__dispatch_copy_or_moveB8ue170006INS_17_ClassicAlgPolicyENS_11__move_loopIS1_EENS_14__move_trivialEPN6Garden5PlantES7_S7_EENS_4pairIT2_T4_EES9_T3_SA_, symObjAddr: 0x2740, symBinAddr: 0x1000035C0, symSize: 0x40 }
  - { offsetInCU: 0x756F, offset: 0x756F, size: 0x8, addend: 0x0, symName: __ZNSt3__121__unwrap_and_dispatchB8ue170006INS_10__overloadINS_11__move_loopINS_17_ClassicAlgPolicyEEENS_14__move_trivialEEEPN6Garden5PlantES9_S9_Li0EEENS_4pairIT0_T2_EESB_T1_SC_, symObjAddr: 0x2780, symBinAddr: 0x100003600, symSize: 0xB0 }
  - { offsetInCU: 0x75FE, offset: 0x75FE, size: 0x8, addend: 0x0, symName: __ZNSt3__114__unwrap_rangeB8ue170006IPN6Garden5PlantES3_EENS_4pairIT0_S5_EET_S7_, symObjAddr: 0x2830, symBinAddr: 0x1000036B0, symSize: 0x50 }
  - { offsetInCU: 0x7779, offset: 0x7779, size: 0x8, addend: 0x0, symName: __ZNSt3__113__unwrap_iterB8ue170006IPN6Garden5PlantENS_18__unwrap_iter_implIS3_Lb1EEELi0EEEDTclsrT0_8__unwrapclsr3stdE7declvalIT_EEEES7_, symObjAddr: 0x2900, symBinAddr: 0x100003780, symSize: 0x20 }
  - { offsetInCU: 0x77BD, offset: 0x77BD, size: 0x8, addend: 0x0, symName: __ZNSt3__19make_pairB8ue170006IPN6Garden5PlantES3_EENS_4pairINS_18__unwrap_ref_decayIT_E4typeENS5_IT0_E4typeEEEOS6_OS9_, symObjAddr: 0x2920, symBinAddr: 0x1000037A0, symSize: 0x30 }
  - { offsetInCU: 0x780C, offset: 0x780C, size: 0x8, addend: 0x0, symName: __ZNSt3__114__rewrap_rangeB8ue170006IPN6Garden5PlantES3_EET_S4_T0_, symObjAddr: 0x2950, symBinAddr: 0x1000037D0, symSize: 0x30 }
  - { offsetInCU: 0x7858, offset: 0x7858, size: 0x8, addend: 0x0, symName: __ZNSt3__113__rewrap_iterB8ue170006IPN6Garden5PlantES3_NS_18__unwrap_iter_implIS3_Lb1EEEEET_S6_T0_, symObjAddr: 0x2980, symBinAddr: 0x100003800, symSize: 0x40 }
  - { offsetInCU: 0x799D, offset: 0x799D, size: 0x8, addend: 0x0, symName: __ZNSt3__116__pad_and_outputB8ue170006IcNS_11char_traitsIcEEEENS_19ostreambuf_iteratorIT_T0_EES6_PKS4_S8_S8_RNS_8ios_baseES4_, symObjAddr: 0x3110, symBinAddr: 0x100003F90, symSize: 0x220 }
  - { offsetInCU: 0x7A6D, offset: 0x7A6D, size: 0x8, addend: 0x0, symName: __ZNSt3__19use_facetB8ue170006INS_5ctypeIcEEEERKT_RKNS_6localeE, symObjAddr: 0x3680, symBinAddr: 0x100004500, symSize: 0x30 }
  - { offsetInCU: 0x7F3A, offset: 0x7F3A, size: 0x8, addend: 0x0, symName: __ZNSt3__112__to_addressB8ue170006IKcEEPT_S3_, symObjAddr: 0x3710, symBinAddr: 0x100004590, symSize: 0x10 }
  - { offsetInCU: 0x7FA2, offset: 0x7FA2, size: 0x8, addend: 0x0, symName: __ZNSt3__118__constexpr_strlenB8ue170006EPKc, symObjAddr: 0x3850, symBinAddr: 0x1000046D0, symSize: 0x1B }
  - { offsetInCU: 0x8247, offset: 0x8247, size: 0x8, addend: 0x0, symName: __ZSt28__throw_bad_array_new_lengthB8ue170006v, symObjAddr: 0x1480, symBinAddr: 0x100002300, symSize: 0x40 }
  - { offsetInCU: 0x87EC, offset: 0x87EC, size: 0x8, addend: 0x0, symName: __ZNSt3__16vectorIN6Garden5PlantENS_9allocatorIS2_EEE26__swap_out_circular_bufferERNS_14__split_bufferIS2_RS4_EE, symObjAddr: 0xD50, symBinAddr: 0x100001BD0, symSize: 0x120 }
  - { offsetInCU: 0xAC54, offset: 0xAC54, size: 0x8, addend: 0x0, symName: __ZN6GardenC2Ev, symObjAddr: 0x0, symBinAddr: 0x100000E80, symSize: 0x20 }
  - { offsetInCU: 0xAC7F, offset: 0xAC7F, size: 0x8, addend: 0x0, symName: __ZNSt3__16vectorIN6Garden5PlantENS_9allocatorIS2_EEEC1B8ue170006Ev, symObjAddr: 0x20, symBinAddr: 0x100000EA0, symSize: 0x20 }
  - { offsetInCU: 0xACA8, offset: 0xACA8, size: 0x8, addend: 0x0, symName: __ZN6GardenC1Ev, symObjAddr: 0x40, symBinAddr: 0x100000EC0, symSize: 0x20 }
  - { offsetInCU: 0xACD3, offset: 0xACD3, size: 0x8, addend: 0x0, symName: __ZN6Garden15plant_in_gardenERKNS_5PlantE, symObjAddr: 0x60, symBinAddr: 0x100000EE0, symSize: 0x30 }
  - { offsetInCU: 0xAD07, offset: 0xAD07, size: 0x8, addend: 0x0, symName: __ZNSt3__16vectorIN6Garden5PlantENS_9allocatorIS2_EEE9push_backB8ue170006ERKS2_, symObjAddr: 0x90, symBinAddr: 0x100000F10, symSize: 0x60 }
  - { offsetInCU: 0xAD3D, offset: 0xAD3D, size: 0x8, addend: 0x0, symName: __ZN6Garden6dig_upERKi, symObjAddr: 0xF0, symBinAddr: 0x100000F70, symSize: 0x150 }
  - { offsetInCU: 0xADA5, offset: 0xADA5, size: 0x8, addend: 0x0, symName: __ZNKSt3__16vectorIN6Garden5PlantENS_9allocatorIS2_EEE4sizeB8ue170006Ev, symObjAddr: 0x240, symBinAddr: 0x1000010C0, symSize: 0x30 }
  - { offsetInCU: 0xADCF, offset: 0xADCF, size: 0x8, addend: 0x0, symName: __ZN6Garden5PlantC1Ev, symObjAddr: 0x270, symBinAddr: 0x1000010F0, symSize: 0x20 }
  - { offsetInCU: 0xADFA, offset: 0xADFA, size: 0x8, addend: 0x0, symName: __ZN6Garden5PlantD1Ev, symObjAddr: 0x290, symBinAddr: 0x100001110, symSize: 0x20 }
  - { offsetInCU: 0xAE24, offset: 0xAE24, size: 0x8, addend: 0x0, symName: __ZNSt3__16vectorIN6Garden5PlantENS_9allocatorIS2_EEEixB8ue170006Em, symObjAddr: 0x2B0, symBinAddr: 0x100001130, symSize: 0x20 }
  - { offsetInCU: 0xAE5A, offset: 0xAE5A, size: 0x8, addend: 0x0, symName: __ZN6Garden5PlantC1ERKS0_, symObjAddr: 0x2D0, symBinAddr: 0x100001150, symSize: 0x30 }
  - { offsetInCU: 0xAE8D, offset: 0xAE8D, size: 0x8, addend: 0x0, symName: __ZNSt3__16vectorIN6Garden5PlantENS_9allocatorIS2_EEE5eraseB8ue170006ENS_11__wrap_iterIPKS2_EE, symObjAddr: 0x300, symBinAddr: 0x100001180, symSize: 0x90 }
  - { offsetInCU: 0xAEE0, offset: 0xAEE0, size: 0x8, addend: 0x0, symName: __ZNSt3__16vectorIN6Garden5PlantENS_9allocatorIS2_EEE5beginB8ue170006Ev, symObjAddr: 0x390, symBinAddr: 0x100001210, symSize: 0x30 }
  - { offsetInCU: 0xAF07, offset: 0xAF07, size: 0x8, addend: 0x0, symName: __ZNKSt3__111__wrap_iterIPN6Garden5PlantEEplB8ue170006El, symObjAddr: 0x3C0, symBinAddr: 0x100001240, symSize: 0x40 }
  - { offsetInCU: 0xAF52, offset: 0xAF52, size: 0x8, addend: 0x0, symName: __ZNSt3__111__wrap_iterIPKN6Garden5PlantEEC1B8ue170006IPS2_EERKNS0_IT_EEPNS_9enable_ifIXsr14is_convertibleIS8_S4_EE5valueEvE4typeE, symObjAddr: 0x400, symBinAddr: 0x100001280, symSize: 0x30 }
  - { offsetInCU: 0xAF9D, offset: 0xAF9D, size: 0x8, addend: 0x0, symName: __ZNK6Garden11view_gardenEv, symObjAddr: 0x430, symBinAddr: 0x1000012B0, symSize: 0x90 }
  - { offsetInCU: 0xAFE0, offset: 0xAFE0, size: 0x8, addend: 0x0, symName: __ZNKSt3__16vectorIN6Garden5PlantENS_9allocatorIS2_EEEixB8ue170006Em, symObjAddr: 0x550, symBinAddr: 0x1000013D0, symSize: 0x20 }
  - { offsetInCU: 0xB016, offset: 0xB016, size: 0x8, addend: 0x0, symName: __ZN6Garden5PlantC2Ev, symObjAddr: 0x570, symBinAddr: 0x1000013F0, symSize: 0x20 }
  - { offsetInCU: 0xB041, offset: 0xB041, size: 0x8, addend: 0x0, symName: __ZNSt3__112basic_stringIcNS_11char_traitsIcEENS_9allocatorIcEEEC1B8ue170006Ev, symObjAddr: 0x590, symBinAddr: 0x100001410, symSize: 0x20 }
  - { offsetInCU: 0xB06A, offset: 0xB06A, size: 0x8, addend: 0x0, symName: __ZNSt3__112basic_stringIcNS_11char_traitsIcEENS_9allocatorIcEEEC2B8ue170006Ev, symObjAddr: 0x5B0, symBinAddr: 0x100001430, symSize: 0x50 }
  - { offsetInCU: 0xB098, offset: 0xB098, size: 0x8, addend: 0x0, symName: __ZNSt3__117__compressed_pairINS_12basic_stringIcNS_11char_traitsIcEENS_9allocatorIcEEE5__repES5_EC1B8ue170006INS_18__default_init_tagESA_EEOT_OT0_, symObjAddr: 0x600, symBinAddr: 0x100001480, symSize: 0x30 }
  - { offsetInCU: 0xB0EF, offset: 0xB0EF, size: 0x8, addend: 0x0, symName: __ZNSt3__112basic_stringIcNS_11char_traitsIcEENS_9allocatorIcEEE14__default_initB8ue170006Ev, symObjAddr: 0x640, symBinAddr: 0x1000014C0, symSize: 0x50 }
  - { offsetInCU: 0xB114, offset: 0xB114, size: 0x8, addend: 0x0, symName: __ZNSt3__117__compressed_pairINS_12basic_stringIcNS_11char_traitsIcEENS_9allocatorIcEEE5__repES5_EC2B8ue170006INS_18__default_init_tagESA_EEOT_OT0_, symObjAddr: 0x690, symBinAddr: 0x100001510, symSize: 0x30 }
  - { offsetInCU: 0xB16B, offset: 0xB16B, size: 0x8, addend: 0x0, symName: __ZNSt3__122__compressed_pair_elemINS_12basic_stringIcNS_11char_traitsIcEENS_9allocatorIcEEE5__repELi0ELb0EEC2B8ue170006ENS_18__default_init_tagE, symObjAddr: 0x6C0, symBinAddr: 0x100001540, symSize: 0x10 }
  - { offsetInCU: 0xB19F, offset: 0xB19F, size: 0x8, addend: 0x0, symName: __ZNSt3__122__compressed_pair_elemINS_9allocatorIcEELi1ELb1EEC2B8ue170006ENS_18__default_init_tagE, symObjAddr: 0x6D0, symBinAddr: 0x100001550, symSize: 0x20 }
  - { offsetInCU: 0xB1D3, offset: 0xB1D3, size: 0x8, addend: 0x0, symName: __ZNSt3__19allocatorIcEC2B8ue170006Ev, symObjAddr: 0x6F0, symBinAddr: 0x100001570, symSize: 0x20 }
  - { offsetInCU: 0xB1FC, offset: 0xB1FC, size: 0x8, addend: 0x0, symName: __ZNSt3__116__non_trivial_ifILb1ENS_9allocatorIcEEEC2B8ue170006Ev, symObjAddr: 0x710, symBinAddr: 0x100001590, symSize: 0x10 }
  - { offsetInCU: 0xB225, offset: 0xB225, size: 0x8, addend: 0x0, symName: __ZNSt3__117__compressed_pairINS_12basic_stringIcNS_11char_traitsIcEENS_9allocatorIcEEE5__repES5_E5firstB8ue170006Ev, symObjAddr: 0x720, symBinAddr: 0x1000015A0, symSize: 0x20 }
  - { offsetInCU: 0xB24A, offset: 0xB24A, size: 0x8, addend: 0x0, symName: __ZNSt3__122__compressed_pair_elemINS_12basic_stringIcNS_11char_traitsIcEENS_9allocatorIcEEE5__repELi0ELb0EE5__getB8ue170006Ev, symObjAddr: 0x740, symBinAddr: 0x1000015C0, symSize: 0x10 }
  - { offsetInCU: 0xB26F, offset: 0xB26F, size: 0x8, addend: 0x0, symName: __ZN6Garden5PlantD2Ev, symObjAddr: 0x750, symBinAddr: 0x1000015D0, symSize: 0x20 }
  - { offsetInCU: 0xB29A, offset: 0xB29A, size: 0x8, addend: 0x0, symName: __ZN6Garden5PlantC2ERKS0_, symObjAddr: 0x770, symBinAddr: 0x1000015F0, symSize: 0x30 }
  - { offsetInCU: 0xB2CE, offset: 0xB2CE, size: 0x8, addend: 0x0, symName: __ZNSt3__111__wrap_iterIPN6Garden5PlantEEpLB8ue170006El, symObjAddr: 0x7A0, symBinAddr: 0x100001620, symSize: 0x20 }
  - { offsetInCU: 0xB301, offset: 0xB301, size: 0x8, addend: 0x0, symName: __ZNSt3__111__wrap_iterIPKN6Garden5PlantEEC2B8ue170006IPS2_EERKNS0_IT_EEPNS_9enable_ifIXsr14is_convertibleIS8_S4_EE5valueEvE4typeE, symObjAddr: 0x7C0, symBinAddr: 0x100001640, symSize: 0x40 }
  - { offsetInCU: 0xB34C, offset: 0xB34C, size: 0x8, addend: 0x0, symName: __ZNKSt3__111__wrap_iterIPN6Garden5PlantEE4baseB8ue170006Ev, symObjAddr: 0x800, symBinAddr: 0x100001680, symSize: 0x20 }
  - { offsetInCU: 0xB371, offset: 0xB371, size: 0x8, addend: 0x0, symName: __ZNSt3__16vectorIN6Garden5PlantENS_9allocatorIS2_EEEC2B8ue170006Ev, symObjAddr: 0x820, symBinAddr: 0x1000016A0, symSize: 0x50 }
  - { offsetInCU: 0xB39F, offset: 0xB39F, size: 0x8, addend: 0x0, symName: __ZNSt3__117__compressed_pairIPN6Garden5PlantENS_9allocatorIS2_EEEC1B8ue170006IDnNS_18__default_init_tagEEEOT_OT0_, symObjAddr: 0x870, symBinAddr: 0x1000016F0, symSize: 0x30 }
  - { offsetInCU: 0xB3F6, offset: 0xB3F6, size: 0x8, addend: 0x0, symName: __ZNSt3__117__compressed_pairIPN6Garden5PlantENS_9allocatorIS2_EEEC2B8ue170006IDnNS_18__default_init_tagEEEOT_OT0_, symObjAddr: 0x8A0, symBinAddr: 0x100001720, symSize: 0x40 }
  - { offsetInCU: 0xB44D, offset: 0xB44D, size: 0x8, addend: 0x0, symName: __ZNSt3__122__compressed_pair_elemIPN6Garden5PlantELi0ELb0EEC2B8ue170006IDnvEEOT_, symObjAddr: 0x8E0, symBinAddr: 0x100001760, symSize: 0x20 }
  - { offsetInCU: 0xB48E, offset: 0xB48E, size: 0x8, addend: 0x0, symName: __ZNSt3__122__compressed_pair_elemINS_9allocatorIN6Garden5PlantEEELi1ELb1EEC2B8ue170006ENS_18__default_init_tagE, symObjAddr: 0x900, symBinAddr: 0x100001780, symSize: 0x20 }
  - { offsetInCU: 0xB4C2, offset: 0xB4C2, size: 0x8, addend: 0x0, symName: __ZNSt3__19allocatorIN6Garden5PlantEEC2B8ue170006Ev, symObjAddr: 0x920, symBinAddr: 0x1000017A0, symSize: 0x20 }
  - { offsetInCU: 0xB4EB, offset: 0xB4EB, size: 0x8, addend: 0x0, symName: __ZNSt3__116__non_trivial_ifILb1ENS_9allocatorIN6Garden5PlantEEEEC2B8ue170006Ev, symObjAddr: 0x940, symBinAddr: 0x1000017C0, symSize: 0x10 }
  - { offsetInCU: 0xB514, offset: 0xB514, size: 0x8, addend: 0x0, symName: __ZNSt3__16vectorIN6Garden5PlantENS_9allocatorIS2_EEE9__end_capB8ue170006Ev, symObjAddr: 0x950, symBinAddr: 0x1000017D0, symSize: 0x20 }
  - { offsetInCU: 0xB539, offset: 0xB539, size: 0x8, addend: 0x0, symName: __ZNSt3__16vectorIN6Garden5PlantENS_9allocatorIS2_EEE22__construct_one_at_endB8ue170006IJRKS2_EEEvDpOT_, symObjAddr: 0x970, symBinAddr: 0x1000017F0, symSize: 0x90 }
  - { offsetInCU: 0xB586, offset: 0xB586, size: 0x8, addend: 0x0, symName: __ZNSt3__16vectorIN6Garden5PlantENS_9allocatorIS2_EEE21__push_back_slow_pathIRKS2_EEvOT_, symObjAddr: 0xA00, symBinAddr: 0x100001880, symSize: 0xD0 }
  - { offsetInCU: 0xB5E3, offset: 0xB5E3, size: 0x8, addend: 0x0, symName: __ZNSt3__117__compressed_pairIPN6Garden5PlantENS_9allocatorIS2_EEE5firstB8ue170006Ev, symObjAddr: 0xAD0, symBinAddr: 0x100001950, symSize: 0x20 }
  - { offsetInCU: 0xB608, offset: 0xB608, size: 0x8, addend: 0x0, symName: __ZNSt3__122__compressed_pair_elemIPN6Garden5PlantELi0ELb0EE5__getB8ue170006Ev, symObjAddr: 0xAF0, symBinAddr: 0x100001970, symSize: 0x10 }
  - { offsetInCU: 0xB646, offset: 0xB646, size: 0x8, addend: 0x0, symName: __ZNSt3__16vectorIN6Garden5PlantENS_9allocatorIS2_EEE21_ConstructTransactionC1B8ue170006ERS5_m, symObjAddr: 0xB00, symBinAddr: 0x100001980, symSize: 0x30 }
  - { offsetInCU: 0xB68D, offset: 0xB68D, size: 0x8, addend: 0x0, symName: __ZNSt3__116allocator_traitsINS_9allocatorIN6Garden5PlantEEEE9constructB8ue170006IS3_JRKS3_EvEEvRS4_PT_DpOT0_, symObjAddr: 0xB30, symBinAddr: 0x1000019B0, symSize: 0x30 }
  - { offsetInCU: 0xB6E4, offset: 0xB6E4, size: 0x8, addend: 0x0, symName: __ZNSt3__16vectorIN6Garden5PlantENS_9allocatorIS2_EEE7__allocB8ue170006Ev, symObjAddr: 0xB60, symBinAddr: 0x1000019E0, symSize: 0x20 }
  - { offsetInCU: 0xB709, offset: 0xB709, size: 0x8, addend: 0x0, symName: __ZNSt3__16vectorIN6Garden5PlantENS_9allocatorIS2_EEE21_ConstructTransactionD1B8ue170006Ev, symObjAddr: 0xB90, symBinAddr: 0x100001A10, symSize: 0x20 }
  - { offsetInCU: 0xB732, offset: 0xB732, size: 0x8, addend: 0x0, symName: __ZNSt3__16vectorIN6Garden5PlantENS_9allocatorIS2_EEE21_ConstructTransactionC2B8ue170006ERS5_m, symObjAddr: 0xBB0, symBinAddr: 0x100001A30, symSize: 0x40 }
  - { offsetInCU: 0xB779, offset: 0xB779, size: 0x8, addend: 0x0, symName: __ZNSt3__19allocatorIN6Garden5PlantEE9constructB8ue170006IS2_JRKS2_EEEvPT_DpOT0_, symObjAddr: 0xBF0, symBinAddr: 0x100001A70, symSize: 0x30 }
  - { offsetInCU: 0xB7CE, offset: 0xB7CE, size: 0x8, addend: 0x0, symName: __ZNSt3__117__compressed_pairIPN6Garden5PlantENS_9allocatorIS2_EEE6secondB8ue170006Ev, symObjAddr: 0xC20, symBinAddr: 0x100001AA0, symSize: 0x20 }
  - { offsetInCU: 0xB7F3, offset: 0xB7F3, size: 0x8, addend: 0x0, symName: __ZNSt3__122__compressed_pair_elemINS_9allocatorIN6Garden5PlantEEELi1ELb1EE5__getB8ue170006Ev, symObjAddr: 0xC40, symBinAddr: 0x100001AC0, symSize: 0x10 }
  - { offsetInCU: 0xB818, offset: 0xB818, size: 0x8, addend: 0x0, symName: __ZNSt3__16vectorIN6Garden5PlantENS_9allocatorIS2_EEE21_ConstructTransactionD2B8ue170006Ev, symObjAddr: 0xC50, symBinAddr: 0x100001AD0, symSize: 0x20 }
  - { offsetInCU: 0xB840, offset: 0xB840, size: 0x8, addend: 0x0, symName: __ZNKSt3__16vectorIN6Garden5PlantENS_9allocatorIS2_EEE11__recommendB8ue170006Em, symObjAddr: 0xC70, symBinAddr: 0x100001AF0, symSize: 0xA0 }
  - { offsetInCU: 0xB894, offset: 0xB894, size: 0x8, addend: 0x0, symName: __ZNSt3__114__split_bufferIN6Garden5PlantERNS_9allocatorIS2_EEEC1EmmS5_, symObjAddr: 0xD10, symBinAddr: 0x100001B90, symSize: 0x40 }
  - { offsetInCU: 0xB8E9, offset: 0xB8E9, size: 0x8, addend: 0x0, symName: __ZNSt3__114__split_bufferIN6Garden5PlantERNS_9allocatorIS2_EEED1Ev, symObjAddr: 0xE70, symBinAddr: 0x100001CF0, symSize: 0x20 }
  - { offsetInCU: 0xB913, offset: 0xB913, size: 0x8, addend: 0x0, symName: __ZNKSt3__16vectorIN6Garden5PlantENS_9allocatorIS2_EEE8max_sizeEv, symObjAddr: 0xE90, symBinAddr: 0x100001D10, symSize: 0x60 }
  - { offsetInCU: 0xB93A, offset: 0xB93A, size: 0x8, addend: 0x0, symName: __ZNKSt3__16vectorIN6Garden5PlantENS_9allocatorIS2_EEE20__throw_length_errorB8ue170006Ev, symObjAddr: 0xEF0, symBinAddr: 0x100001D70, symSize: 0x20 }
  - { offsetInCU: 0xB95F, offset: 0xB95F, size: 0x8, addend: 0x0, symName: __ZNKSt3__16vectorIN6Garden5PlantENS_9allocatorIS2_EEE8capacityB8ue170006Ev, symObjAddr: 0xF10, symBinAddr: 0x100001D90, symSize: 0x40 }
  - { offsetInCU: 0xB98E, offset: 0xB98E, size: 0x8, addend: 0x0, symName: __ZNSt3__116allocator_traitsINS_9allocatorIN6Garden5PlantEEEE8max_sizeB8ue170006IS4_vEEmRKS4_, symObjAddr: 0xFB0, symBinAddr: 0x100001E30, symSize: 0x20 }
  - { offsetInCU: 0xB9BC, offset: 0xB9BC, size: 0x8, addend: 0x0, symName: __ZNKSt3__16vectorIN6Garden5PlantENS_9allocatorIS2_EEE7__allocB8ue170006Ev, symObjAddr: 0xFD0, symBinAddr: 0x100001E50, symSize: 0x20 }
  - { offsetInCU: 0xB9E1, offset: 0xB9E1, size: 0x8, addend: 0x0, symName: __ZNSt3__114numeric_limitsIlE3maxB8ue170006Ev, symObjAddr: 0xFF0, symBinAddr: 0x100001E70, symSize: 0x10 }
  - { offsetInCU: 0xBA09, offset: 0xBA09, size: 0x8, addend: 0x0, symName: __ZNKSt3__16__lessIvvEclB8ue170006ImmEEbRKT_RKT0_, symObjAddr: 0x1050, symBinAddr: 0x100001ED0, symSize: 0x30 }
  - { offsetInCU: 0xBA5C, offset: 0xBA5C, size: 0x8, addend: 0x0, symName: __ZNKSt3__19allocatorIN6Garden5PlantEE8max_sizeB8ue170006Ev, symObjAddr: 0x1080, symBinAddr: 0x100001F00, symSize: 0x20 }
  - { offsetInCU: 0xBA81, offset: 0xBA81, size: 0x8, addend: 0x0, symName: __ZNKSt3__117__compressed_pairIPN6Garden5PlantENS_9allocatorIS2_EEE6secondB8ue170006Ev, symObjAddr: 0x10A0, symBinAddr: 0x100001F20, symSize: 0x20 }
  - { offsetInCU: 0xBAA6, offset: 0xBAA6, size: 0x8, addend: 0x0, symName: __ZNKSt3__122__compressed_pair_elemINS_9allocatorIN6Garden5PlantEEELi1ELb1EE5__getB8ue170006Ev, symObjAddr: 0x10C0, symBinAddr: 0x100001F40, symSize: 0x10 }
  - { offsetInCU: 0xBACB, offset: 0xBACB, size: 0x8, addend: 0x0, symName: __ZNSt3__123__libcpp_numeric_limitsIlLb1EE3maxB8ue170006Ev, symObjAddr: 0x10D0, symBinAddr: 0x100001F50, symSize: 0x10 }
  - { offsetInCU: 0xBADF, offset: 0xBADF, size: 0x8, addend: 0x0, symName: __ZNSt12length_errorC1B8ue170006EPKc, symObjAddr: 0x1150, symBinAddr: 0x100001FD0, symSize: 0x30 }
  - { offsetInCU: 0xBB16, offset: 0xBB16, size: 0x8, addend: 0x0, symName: __ZNSt12length_errorC2B8ue170006EPKc, symObjAddr: 0x1180, symBinAddr: 0x100002000, symSize: 0x40 }
  - { offsetInCU: 0xBB4D, offset: 0xBB4D, size: 0x8, addend: 0x0, symName: __ZNKSt3__16vectorIN6Garden5PlantENS_9allocatorIS2_EEE9__end_capB8ue170006Ev, symObjAddr: 0x11C0, symBinAddr: 0x100002040, symSize: 0x20 }
  - { offsetInCU: 0xBB72, offset: 0xBB72, size: 0x8, addend: 0x0, symName: __ZNKSt3__117__compressed_pairIPN6Garden5PlantENS_9allocatorIS2_EEE5firstB8ue170006Ev, symObjAddr: 0x11E0, symBinAddr: 0x100002060, symSize: 0x20 }
  - { offsetInCU: 0xBB97, offset: 0xBB97, size: 0x8, addend: 0x0, symName: __ZNKSt3__122__compressed_pair_elemIPN6Garden5PlantELi0ELb0EE5__getB8ue170006Ev, symObjAddr: 0x1200, symBinAddr: 0x100002080, symSize: 0x10 }
  - { offsetInCU: 0xBBBC, offset: 0xBBBC, size: 0x8, addend: 0x0, symName: __ZNSt3__114__split_bufferIN6Garden5PlantERNS_9allocatorIS2_EEEC2EmmS5_, symObjAddr: 0x1260, symBinAddr: 0x1000020E0, symSize: 0xC0 }
  - { offsetInCU: 0xBC2F, offset: 0xBC2F, size: 0x8, addend: 0x0, symName: __ZNSt3__117__compressed_pairIPN6Garden5PlantERNS_9allocatorIS2_EEEC1B8ue170006IDnS6_EEOT_OT0_, symObjAddr: 0x1320, symBinAddr: 0x1000021A0, symSize: 0x30 }
  - { offsetInCU: 0xBC86, offset: 0xBC86, size: 0x8, addend: 0x0, symName: __ZNSt3__114__split_bufferIN6Garden5PlantERNS_9allocatorIS2_EEE7__allocB8ue170006Ev, symObjAddr: 0x1390, symBinAddr: 0x100002210, symSize: 0x20 }
  - { offsetInCU: 0xBCAB, offset: 0xBCAB, size: 0x8, addend: 0x0, symName: __ZNSt3__114__split_bufferIN6Garden5PlantERNS_9allocatorIS2_EEE9__end_capB8ue170006Ev, symObjAddr: 0x13B0, symBinAddr: 0x100002230, symSize: 0x20 }
  - { offsetInCU: 0xBCD0, offset: 0xBCD0, size: 0x8, addend: 0x0, symName: __ZNSt3__117__compressed_pairIPN6Garden5PlantERNS_9allocatorIS2_EEEC2B8ue170006IDnS6_EEOT_OT0_, symObjAddr: 0x13D0, symBinAddr: 0x100002250, symSize: 0x40 }
  - { offsetInCU: 0xBD27, offset: 0xBD27, size: 0x8, addend: 0x0, symName: __ZNSt3__122__compressed_pair_elemIRNS_9allocatorIN6Garden5PlantEEELi1ELb0EEC2B8ue170006IS5_vEEOT_, symObjAddr: 0x1410, symBinAddr: 0x100002290, symSize: 0x20 }
  - { offsetInCU: 0xBD68, offset: 0xBD68, size: 0x8, addend: 0x0, symName: __ZNSt3__19allocatorIN6Garden5PlantEE8allocateB8ue170006Em, symObjAddr: 0x1430, symBinAddr: 0x1000022B0, symSize: 0x50 }
  - { offsetInCU: 0xBD9B, offset: 0xBD9B, size: 0x8, addend: 0x0, symName: __ZNSt3__117__compressed_pairIPN6Garden5PlantERNS_9allocatorIS2_EEE6secondB8ue170006Ev, symObjAddr: 0x1500, symBinAddr: 0x100002380, symSize: 0x20 }
  - { offsetInCU: 0xBDC0, offset: 0xBDC0, size: 0x8, addend: 0x0, symName: __ZNSt3__122__compressed_pair_elemIRNS_9allocatorIN6Garden5PlantEEELi1ELb0EE5__getB8ue170006Ev, symObjAddr: 0x1520, symBinAddr: 0x1000023A0, symSize: 0x20 }
  - { offsetInCU: 0xBDE5, offset: 0xBDE5, size: 0x8, addend: 0x0, symName: __ZNSt3__117__compressed_pairIPN6Garden5PlantERNS_9allocatorIS2_EEE5firstB8ue170006Ev, symObjAddr: 0x1540, symBinAddr: 0x1000023C0, symSize: 0x20 }
  - { offsetInCU: 0xBE0A, offset: 0xBE0A, size: 0x8, addend: 0x0, symName: __ZNKSt3__16vectorIN6Garden5PlantENS_9allocatorIS2_EEE17__annotate_deleteB8ue170006Ev, symObjAddr: 0x1560, symBinAddr: 0x1000023E0, symSize: 0xB0 }
  - { offsetInCU: 0xBE2F, offset: 0xBE2F, size: 0x8, addend: 0x0, symName: __ZNSt3__116reverse_iteratorIPN6Garden5PlantEEC1B8ue170006ES3_, symObjAddr: 0x1790, symBinAddr: 0x100002610, symSize: 0x30 }
  - { offsetInCU: 0xBE66, offset: 0xBE66, size: 0x8, addend: 0x0, symName: __ZNKSt3__116reverse_iteratorIPN6Garden5PlantEE4baseB8ue170006Ev, symObjAddr: 0x17C0, symBinAddr: 0x100002640, symSize: 0x20 }
  - { offsetInCU: 0xBE8B, offset: 0xBE8B, size: 0x8, addend: 0x0, symName: __ZNKSt3__16vectorIN6Garden5PlantENS_9allocatorIS2_EEE14__annotate_newB8ue170006Em, symObjAddr: 0x1820, symBinAddr: 0x1000026A0, symSize: 0xA0 }
  - { offsetInCU: 0xBEBF, offset: 0xBEBF, size: 0x8, addend: 0x0, symName: __ZNKSt3__16vectorIN6Garden5PlantENS_9allocatorIS2_EEE31__annotate_contiguous_containerB8ue170006EPKvS7_S7_S7_, symObjAddr: 0x18C0, symBinAddr: 0x100002740, symSize: 0x20 }
  - { offsetInCU: 0xBF14, offset: 0xBF14, size: 0x8, addend: 0x0, symName: __ZNKSt3__16vectorIN6Garden5PlantENS_9allocatorIS2_EEE4dataB8ue170006Ev, symObjAddr: 0x18E0, symBinAddr: 0x100002760, symSize: 0x20 }
  - { offsetInCU: 0xBF39, offset: 0xBF39, size: 0x8, addend: 0x0, symName: __ZNSt3__129_AllocatorDestroyRangeReverseINS_9allocatorIN6Garden5PlantEEENS_16reverse_iteratorIPS3_EEEC1B8ue170006ERS4_RS7_SA_, symObjAddr: 0x1960, symBinAddr: 0x1000027E0, symSize: 0x40 }
  - { offsetInCU: 0xBF94, offset: 0xBF94, size: 0x8, addend: 0x0, symName: __ZNSt3__116allocator_traitsINS_9allocatorIN6Garden5PlantEEEE9constructB8ue170006IS3_JS3_EvEEvRS4_PT_DpOT0_, symObjAddr: 0x19E0, symBinAddr: 0x100002860, symSize: 0x30 }
  - { offsetInCU: 0xBFEB, offset: 0xBFEB, size: 0x8, addend: 0x0, symName: __ZNKSt3__116reverse_iteratorIPN6Garden5PlantEEdeB8ue170006Ev, symObjAddr: 0x1A30, symBinAddr: 0x1000028B0, symSize: 0x30 }
  - { offsetInCU: 0xC01E, offset: 0xC01E, size: 0x8, addend: 0x0, symName: __ZNSt3__116reverse_iteratorIPN6Garden5PlantEEppB8ue170006Ev, symObjAddr: 0x1A60, symBinAddr: 0x1000028E0, symSize: 0x20 }
  - { offsetInCU: 0xC043, offset: 0xC043, size: 0x8, addend: 0x0, symName: __ZNSt3__128__exception_guard_exceptionsINS_29_AllocatorDestroyRangeReverseINS_9allocatorIN6Garden5PlantEEENS_16reverse_iteratorIPS4_EEEEE10__completeB8ue170006Ev, symObjAddr: 0x1A80, symBinAddr: 0x100002900, symSize: 0x20 }
  - { offsetInCU: 0xC068, offset: 0xC068, size: 0x8, addend: 0x0, symName: __ZNSt3__128__exception_guard_exceptionsINS_29_AllocatorDestroyRangeReverseINS_9allocatorIN6Garden5PlantEEENS_16reverse_iteratorIPS4_EEEEED1B8ue170006Ev, symObjAddr: 0x1AA0, symBinAddr: 0x100002920, symSize: 0x20 }
  - { offsetInCU: 0xC091, offset: 0xC091, size: 0x8, addend: 0x0, symName: __ZNSt3__128__exception_guard_exceptionsINS_29_AllocatorDestroyRangeReverseINS_9allocatorIN6Garden5PlantEEENS_16reverse_iteratorIPS4_EEEEEC1B8ue170006ES9_, symObjAddr: 0x1AC0, symBinAddr: 0x100002940, symSize: 0x40 }
  - { offsetInCU: 0xC0C8, offset: 0xC0C8, size: 0x8, addend: 0x0, symName: __ZNSt3__128__exception_guard_exceptionsINS_29_AllocatorDestroyRangeReverseINS_9allocatorIN6Garden5PlantEEENS_16reverse_iteratorIPS4_EEEEEC2B8ue170006ES9_, symObjAddr: 0x1B00, symBinAddr: 0x100002980, symSize: 0x30 }
  - { offsetInCU: 0xC0FF, offset: 0xC0FF, size: 0x8, addend: 0x0, symName: __ZNSt3__129_AllocatorDestroyRangeReverseINS_9allocatorIN6Garden5PlantEEENS_16reverse_iteratorIPS3_EEEC2B8ue170006ERS4_RS7_SA_, symObjAddr: 0x1B30, symBinAddr: 0x1000029B0, symSize: 0x40 }
  - { offsetInCU: 0xC155, offset: 0xC155, size: 0x8, addend: 0x0, symName: __ZNSt3__19allocatorIN6Garden5PlantEE9constructB8ue170006IS2_JS2_EEEvPT_DpOT0_, symObjAddr: 0x1B70, symBinAddr: 0x1000029F0, symSize: 0x30 }
  - { offsetInCU: 0xC1AA, offset: 0xC1AA, size: 0x8, addend: 0x0, symName: __ZN6Garden5PlantC1EOS0_, symObjAddr: 0x1BA0, symBinAddr: 0x100002A20, symSize: 0x30 }
  - { offsetInCU: 0xC1DE, offset: 0xC1DE, size: 0x8, addend: 0x0, symName: __ZN6Garden5PlantC2EOS0_, symObjAddr: 0x1BD0, symBinAddr: 0x100002A50, symSize: 0x30 }
  - { offsetInCU: 0xC212, offset: 0xC212, size: 0x8, addend: 0x0, symName: __ZNSt3__112basic_stringIcNS_11char_traitsIcEENS_9allocatorIcEEEC1B8ue170006EOS5_, symObjAddr: 0x1C00, symBinAddr: 0x100002A80, symSize: 0x30 }
  - { offsetInCU: 0xC24A, offset: 0xC24A, size: 0x8, addend: 0x0, symName: __ZNSt3__112basic_stringIcNS_11char_traitsIcEENS_9allocatorIcEEEC2B8ue170006EOS5_, symObjAddr: 0x1C30, symBinAddr: 0x100002AB0, symSize: 0x40 }
  - { offsetInCU: 0xC287, offset: 0xC287, size: 0x8, addend: 0x0, symName: __ZNSt3__119__to_address_helperINS_16reverse_iteratorIPN6Garden5PlantEEEvE6__callB8ue170006ERKS5_, symObjAddr: 0x1C70, symBinAddr: 0x100002AF0, symSize: 0x40 }
  - { offsetInCU: 0xC2AA, offset: 0xC2AA, size: 0x8, addend: 0x0, symName: __ZNKSt3__116reverse_iteratorIPN6Garden5PlantEEptB8ue170006Ev, symObjAddr: 0x1CB0, symBinAddr: 0x100002B30, symSize: 0x20 }
  - { offsetInCU: 0xC2CF, offset: 0xC2CF, size: 0x8, addend: 0x0, symName: __ZNSt3__128__exception_guard_exceptionsINS_29_AllocatorDestroyRangeReverseINS_9allocatorIN6Garden5PlantEEENS_16reverse_iteratorIPS4_EEEEED2B8ue170006Ev, symObjAddr: 0x1CD0, symBinAddr: 0x100002B50, symSize: 0x40 }
  - { offsetInCU: 0xC2F8, offset: 0xC2F8, size: 0x8, addend: 0x0, symName: __ZNKSt3__129_AllocatorDestroyRangeReverseINS_9allocatorIN6Garden5PlantEEENS_16reverse_iteratorIPS3_EEEclB8ue170006Ev, symObjAddr: 0x1D10, symBinAddr: 0x100002B90, symSize: 0xF0 }
  - { offsetInCU: 0xC31E, offset: 0xC31E, size: 0x8, addend: 0x0, symName: __ZNSt3__116reverse_iteratorINS0_IPN6Garden5PlantEEEEC1B8ue170006ES4_, symObjAddr: 0x1E70, symBinAddr: 0x100002CF0, symSize: 0x30 }
  - { offsetInCU: 0xC355, offset: 0xC355, size: 0x8, addend: 0x0, symName: __ZNSt3__116allocator_traitsINS_9allocatorIN6Garden5PlantEEEE7destroyB8ue170006IS3_vEEvRS4_PT_, symObjAddr: 0x1EF0, symBinAddr: 0x100002D70, symSize: 0x30 }
  - { offsetInCU: 0xC392, offset: 0xC392, size: 0x8, addend: 0x0, symName: __ZNSt3__116reverse_iteratorINS0_IPN6Garden5PlantEEEEppB8ue170006Ev, symObjAddr: 0x1F40, symBinAddr: 0x100002DC0, symSize: 0x30 }
  - { offsetInCU: 0xC3B7, offset: 0xC3B7, size: 0x8, addend: 0x0, symName: __ZNKSt3__116reverse_iteratorINS0_IPN6Garden5PlantEEEE4baseB8ue170006Ev, symObjAddr: 0x1F70, symBinAddr: 0x100002DF0, symSize: 0x20 }
  - { offsetInCU: 0xC3DC, offset: 0xC3DC, size: 0x8, addend: 0x0, symName: __ZNSt3__19allocatorIN6Garden5PlantEE7destroyB8ue170006EPS2_, symObjAddr: 0x1F90, symBinAddr: 0x100002E10, symSize: 0x20 }
  - { offsetInCU: 0xC414, offset: 0xC414, size: 0x8, addend: 0x0, symName: __ZNSt3__119__to_address_helperINS_16reverse_iteratorINS1_IPN6Garden5PlantEEEEEvE6__callB8ue170006ERKS6_, symObjAddr: 0x1FB0, symBinAddr: 0x100002E30, symSize: 0x40 }
  - { offsetInCU: 0xC437, offset: 0xC437, size: 0x8, addend: 0x0, symName: __ZNKSt3__116reverse_iteratorINS0_IPN6Garden5PlantEEEEptB8ue170006Ev, symObjAddr: 0x1FF0, symBinAddr: 0x100002E70, symSize: 0x20 }
  - { offsetInCU: 0xC45C, offset: 0xC45C, size: 0x8, addend: 0x0, symName: __ZNKSt3__116reverse_iteratorINS0_IPN6Garden5PlantEEEEdeB8ue170006Ev, symObjAddr: 0x2010, symBinAddr: 0x100002E90, symSize: 0x40 }
  - { offsetInCU: 0xC48F, offset: 0xC48F, size: 0x8, addend: 0x0, symName: __ZNSt3__116reverse_iteratorIPN6Garden5PlantEEmmB8ue170006Ev, symObjAddr: 0x2050, symBinAddr: 0x100002ED0, symSize: 0x20 }
  - { offsetInCU: 0xC4B4, offset: 0xC4B4, size: 0x8, addend: 0x0, symName: __ZNSt3__116reverse_iteratorINS0_IPN6Garden5PlantEEEEC2B8ue170006ES4_, symObjAddr: 0x2070, symBinAddr: 0x100002EF0, symSize: 0x40 }
  - { offsetInCU: 0xC4EB, offset: 0xC4EB, size: 0x8, addend: 0x0, symName: __ZNSt3__116reverse_iteratorIPN6Garden5PlantEEC2B8ue170006ES3_, symObjAddr: 0x20B0, symBinAddr: 0x100002F30, symSize: 0x30 }
  - { offsetInCU: 0xC522, offset: 0xC522, size: 0x8, addend: 0x0, symName: __ZNSt3__114__split_bufferIN6Garden5PlantERNS_9allocatorIS2_EEED2Ev, symObjAddr: 0x20E0, symBinAddr: 0x100002F60, symSize: 0x70 }
  - { offsetInCU: 0xC54D, offset: 0xC54D, size: 0x8, addend: 0x0, symName: __ZNSt3__114__split_bufferIN6Garden5PlantERNS_9allocatorIS2_EEE5clearB8ue170006Ev, symObjAddr: 0x2150, symBinAddr: 0x100002FD0, symSize: 0x20 }
  - { offsetInCU: 0xC572, offset: 0xC572, size: 0x8, addend: 0x0, symName: __ZNSt3__116allocator_traitsINS_9allocatorIN6Garden5PlantEEEE10deallocateB8ue170006ERS4_PS3_m, symObjAddr: 0x2170, symBinAddr: 0x100002FF0, symSize: 0x30 }
  - { offsetInCU: 0xC5B4, offset: 0xC5B4, size: 0x8, addend: 0x0, symName: __ZNKSt3__114__split_bufferIN6Garden5PlantERNS_9allocatorIS2_EEE8capacityB8ue170006Ev, symObjAddr: 0x21A0, symBinAddr: 0x100003020, symSize: 0x40 }
  - { offsetInCU: 0xC5D9, offset: 0xC5D9, size: 0x8, addend: 0x0, symName: __ZNSt3__114__split_bufferIN6Garden5PlantERNS_9allocatorIS2_EEE17__destruct_at_endB8ue170006EPS2_, symObjAddr: 0x21E0, symBinAddr: 0x100003060, symSize: 0x30 }
  - { offsetInCU: 0xC60B, offset: 0xC60B, size: 0x8, addend: 0x0, symName: __ZNSt3__114__split_bufferIN6Garden5PlantERNS_9allocatorIS2_EEE17__destruct_at_endB8ue170006EPS2_NS_17integral_constantIbLb0EEE, symObjAddr: 0x2210, symBinAddr: 0x100003090, symSize: 0x80 }
  - { offsetInCU: 0xC64B, offset: 0xC64B, size: 0x8, addend: 0x0, symName: __ZNSt3__19allocatorIN6Garden5PlantEE10deallocateB8ue170006EPS2_m, symObjAddr: 0x2290, symBinAddr: 0x100003110, symSize: 0x50 }
  - { offsetInCU: 0xC68C, offset: 0xC68C, size: 0x8, addend: 0x0, symName: __ZNKSt3__114__split_bufferIN6Garden5PlantERNS_9allocatorIS2_EEE9__end_capB8ue170006Ev, symObjAddr: 0x2350, symBinAddr: 0x1000031D0, symSize: 0x20 }
  - { offsetInCU: 0xC6B1, offset: 0xC6B1, size: 0x8, addend: 0x0, symName: __ZNKSt3__117__compressed_pairIPN6Garden5PlantERNS_9allocatorIS2_EEE5firstB8ue170006Ev, symObjAddr: 0x2370, symBinAddr: 0x1000031F0, symSize: 0x20 }
  - { offsetInCU: 0xC6D6, offset: 0xC6D6, size: 0x8, addend: 0x0, symName: __ZNSt3__16vectorIN6Garden5PlantENS_9allocatorIS2_EEE11__make_iterB8ue170006EPS2_, symObjAddr: 0x2390, symBinAddr: 0x100003210, symSize: 0x30 }
  - { offsetInCU: 0xC70A, offset: 0xC70A, size: 0x8, addend: 0x0, symName: __ZNSt3__111__wrap_iterIPN6Garden5PlantEEC1B8ue170006ES3_, symObjAddr: 0x23C0, symBinAddr: 0x100003240, symSize: 0x30 }
  - { offsetInCU: 0xC741, offset: 0xC741, size: 0x8, addend: 0x0, symName: __ZNSt3__111__wrap_iterIPN6Garden5PlantEEC2B8ue170006ES3_, symObjAddr: 0x23F0, symBinAddr: 0x100003270, symSize: 0x20 }
  - { offsetInCU: 0xC778, offset: 0xC778, size: 0x8, addend: 0x0, symName: __ZNKSt3__16vectorIN6Garden5PlantENS_9allocatorIS2_EEE6cbeginB8ue170006Ev, symObjAddr: 0x2450, symBinAddr: 0x1000032D0, symSize: 0x30 }
  - { offsetInCU: 0xC79D, offset: 0xC79D, size: 0x8, addend: 0x0, symName: __ZNSt3__16vectorIN6Garden5PlantENS_9allocatorIS2_EEE17__destruct_at_endB8ue170006EPS2_, symObjAddr: 0x2480, symBinAddr: 0x100003300, symSize: 0x50 }
  - { offsetInCU: 0xC7E0, offset: 0xC7E0, size: 0x8, addend: 0x0, symName: __ZNKSt3__111__wrap_iterIPKN6Garden5PlantEE4baseB8ue170006Ev, symObjAddr: 0x2510, symBinAddr: 0x100003390, symSize: 0x20 }
  - { offsetInCU: 0xC804, offset: 0xC804, size: 0x8, addend: 0x0, symName: __ZNKSt3__16vectorIN6Garden5PlantENS_9allocatorIS2_EEE5beginB8ue170006Ev, symObjAddr: 0x2530, symBinAddr: 0x1000033B0, symSize: 0x30 }
  - { offsetInCU: 0xC82B, offset: 0xC82B, size: 0x8, addend: 0x0, symName: __ZNKSt3__16vectorIN6Garden5PlantENS_9allocatorIS2_EEE11__make_iterB8ue170006EPKS2_, symObjAddr: 0x2560, symBinAddr: 0x1000033E0, symSize: 0x30 }
  - { offsetInCU: 0xC85F, offset: 0xC85F, size: 0x8, addend: 0x0, symName: __ZNSt3__111__wrap_iterIPKN6Garden5PlantEEC1B8ue170006ES4_, symObjAddr: 0x2590, symBinAddr: 0x100003410, symSize: 0x30 }
  - { offsetInCU: 0xC896, offset: 0xC896, size: 0x8, addend: 0x0, symName: __ZNSt3__111__wrap_iterIPKN6Garden5PlantEEC2B8ue170006ES4_, symObjAddr: 0x25C0, symBinAddr: 0x100003440, symSize: 0x20 }
  - { offsetInCU: 0xC8CD, offset: 0xC8CD, size: 0x8, addend: 0x0, symName: __ZNSt3__16vectorIN6Garden5PlantENS_9allocatorIS2_EEE22__base_destruct_at_endB8ue170006EPS2_, symObjAddr: 0x25E0, symBinAddr: 0x100003460, symSize: 0x80 }
  - { offsetInCU: 0xC910, offset: 0xC910, size: 0x8, addend: 0x0, symName: __ZNKSt3__16vectorIN6Garden5PlantENS_9allocatorIS2_EEE17__annotate_shrinkB8ue170006Em, symObjAddr: 0x2660, symBinAddr: 0x1000034E0, symSize: 0xA0 }
  - { offsetInCU: 0xC967, offset: 0xC967, size: 0x8, addend: 0x0, symName: __ZNKSt3__111__move_loopINS_17_ClassicAlgPolicyEEclB8ue170006IPN6Garden5PlantES6_S6_EENS_4pairIT_T1_EES8_T0_S9_, symObjAddr: 0x2880, symBinAddr: 0x100003700, symSize: 0x80 }
  - { offsetInCU: 0xC9D1, offset: 0xC9D1, size: 0x8, addend: 0x0, symName: __ZNSt3__18_IterOpsINS_17_ClassicAlgPolicyEE11__iter_moveB8ue170006IRPN6Garden5PlantEEENS_9enable_ifIXsr12is_referenceIDTdeclsr3stdE7declvalIRT_EEEEE5valueEDTclsr3stdE4movedeclsr3stdE7declvalISA_EEEEE4typeEOS9_, symObjAddr: 0x29C0, symBinAddr: 0x100003840, symSize: 0x20 }
  - { offsetInCU: 0xC9FD, offset: 0xC9FD, size: 0x8, addend: 0x0, symName: __ZN6Garden5PlantaSEOS0_, symObjAddr: 0x29E0, symBinAddr: 0x100003860, symSize: 0x30 }
  - { offsetInCU: 0xCA2D, offset: 0xCA2D, size: 0x8, addend: 0x0, symName: __ZNSt3__18_IterOpsINS_17_ClassicAlgPolicyEE25__validate_iter_referenceB8ue170006IRPN6Garden5PlantEEEvv, symObjAddr: 0x2A10, symBinAddr: 0x100003890, symSize: 0x10 }
  - { offsetInCU: 0xCA4B, offset: 0xCA4B, size: 0x8, addend: 0x0, symName: __ZNSt3__112basic_stringIcNS_11char_traitsIcEENS_9allocatorIcEEEaSB8ue170006EOS5_, symObjAddr: 0x2A20, symBinAddr: 0x1000038A0, symSize: 0x30 }
  - { offsetInCU: 0xCA7E, offset: 0xCA7E, size: 0x8, addend: 0x0, symName: __ZNSt3__112basic_stringIcNS_11char_traitsIcEENS_9allocatorIcEEE13__move_assignB8ue170006ERS5_NS_17integral_constantIbLb1EEE, symObjAddr: 0x2A50, symBinAddr: 0x1000038D0, symSize: 0xD0 }
  - { offsetInCU: 0xCAC0, offset: 0xCAC0, size: 0x8, addend: 0x0, symName: __ZNKSt3__112basic_stringIcNS_11char_traitsIcEENS_9allocatorIcEEE9__is_longB8ue170006Ev, symObjAddr: 0x2B20, symBinAddr: 0x1000039A0, symSize: 0x30 }
  - { offsetInCU: 0xCAE5, offset: 0xCAE5, size: 0x8, addend: 0x0, symName: __ZNSt3__116allocator_traitsINS_9allocatorIcEEE10deallocateB8ue170006ERS2_Pcm, symObjAddr: 0x2B50, symBinAddr: 0x1000039D0, symSize: 0x30 }
  - { offsetInCU: 0xCB27, offset: 0xCB27, size: 0x8, addend: 0x0, symName: __ZNSt3__112basic_stringIcNS_11char_traitsIcEENS_9allocatorIcEEE7__allocB8ue170006Ev, symObjAddr: 0x2B80, symBinAddr: 0x100003A00, symSize: 0x20 }
  - { offsetInCU: 0xCB4C, offset: 0xCB4C, size: 0x8, addend: 0x0, symName: __ZNSt3__112basic_stringIcNS_11char_traitsIcEENS_9allocatorIcEEE18__get_long_pointerB8ue170006Ev, symObjAddr: 0x2BA0, symBinAddr: 0x100003A20, symSize: 0x20 }
  - { offsetInCU: 0xCB71, offset: 0xCB71, size: 0x8, addend: 0x0, symName: __ZNKSt3__112basic_stringIcNS_11char_traitsIcEENS_9allocatorIcEEE14__get_long_capB8ue170006Ev, symObjAddr: 0x2BC0, symBinAddr: 0x100003A40, symSize: 0x30 }
  - { offsetInCU: 0xCB96, offset: 0xCB96, size: 0x8, addend: 0x0, symName: __ZNSt3__112basic_stringIcNS_11char_traitsIcEENS_9allocatorIcEEE19__move_assign_allocB8ue170006ERS5_, symObjAddr: 0x2BF0, symBinAddr: 0x100003A70, symSize: 0x30 }
  - { offsetInCU: 0xCBCA, offset: 0xCBCA, size: 0x8, addend: 0x0, symName: __ZNSt3__112basic_stringIcNS_11char_traitsIcEENS_9allocatorIcEEE16__set_short_sizeB8ue170006Em, symObjAddr: 0x2C20, symBinAddr: 0x100003AA0, symSize: 0x50 }
  - { offsetInCU: 0xCBFE, offset: 0xCBFE, size: 0x8, addend: 0x0, symName: __ZNSt3__111char_traitsIcE6assignB8ue170006ERcRKc, symObjAddr: 0x2C70, symBinAddr: 0x100003AF0, symSize: 0x20 }
  - { offsetInCU: 0xCC2F, offset: 0xCC2F, size: 0x8, addend: 0x0, symName: __ZNSt3__112basic_stringIcNS_11char_traitsIcEENS_9allocatorIcEEE19__get_short_pointerB8ue170006Ev, symObjAddr: 0x2C90, symBinAddr: 0x100003B10, symSize: 0x30 }
  - { offsetInCU: 0xCC54, offset: 0xCC54, size: 0x8, addend: 0x0, symName: __ZNKSt3__117__compressed_pairINS_12basic_stringIcNS_11char_traitsIcEENS_9allocatorIcEEE5__repES5_E5firstB8ue170006Ev, symObjAddr: 0x2CC0, symBinAddr: 0x100003B40, symSize: 0x20 }
  - { offsetInCU: 0xCC79, offset: 0xCC79, size: 0x8, addend: 0x0, symName: __ZNKSt3__122__compressed_pair_elemINS_12basic_stringIcNS_11char_traitsIcEENS_9allocatorIcEEE5__repELi0ELb0EE5__getB8ue170006Ev, symObjAddr: 0x2CE0, symBinAddr: 0x100003B60, symSize: 0x10 }
  - { offsetInCU: 0xCC9E, offset: 0xCC9E, size: 0x8, addend: 0x0, symName: __ZNSt3__19allocatorIcE10deallocateB8ue170006EPcm, symObjAddr: 0x2CF0, symBinAddr: 0x100003B70, symSize: 0x40 }
  - { offsetInCU: 0xCCDF, offset: 0xCCDF, size: 0x8, addend: 0x0, symName: __ZNSt3__117__compressed_pairINS_12basic_stringIcNS_11char_traitsIcEENS_9allocatorIcEEE5__repES5_E6secondB8ue170006Ev, symObjAddr: 0x2D30, symBinAddr: 0x100003BB0, symSize: 0x20 }
  - { offsetInCU: 0xCD04, offset: 0xCD04, size: 0x8, addend: 0x0, symName: __ZNSt3__122__compressed_pair_elemINS_9allocatorIcEELi1ELb1EE5__getB8ue170006Ev, symObjAddr: 0x2D50, symBinAddr: 0x100003BD0, symSize: 0x10 }
  - { offsetInCU: 0xCD29, offset: 0xCD29, size: 0x8, addend: 0x0, symName: __ZNSt3__112basic_stringIcNS_11char_traitsIcEENS_9allocatorIcEEE19__move_assign_allocB8ue170006ERS5_NS_17integral_constantIbLb1EEE, symObjAddr: 0x2D60, symBinAddr: 0x100003BE0, symSize: 0x30 }
  - { offsetInCU: 0xCD69, offset: 0xCD69, size: 0x8, addend: 0x0, symName: __ZNSt3__114pointer_traitsIPcE10pointer_toB8ue170006ERc, symObjAddr: 0x2D90, symBinAddr: 0x100003C10, symSize: 0x10 }
  - { offsetInCU: 0xCD8C, offset: 0xCD8C, size: 0x8, addend: 0x0, symName: __ZNSt3__118__unwrap_iter_implIPN6Garden5PlantELb1EE8__unwrapB8ue170006ES3_, symObjAddr: 0x2DA0, symBinAddr: 0x100003C20, symSize: 0x20 }
  - { offsetInCU: 0xCDB4, offset: 0xCDB4, size: 0x8, addend: 0x0, symName: __ZNSt3__14pairIPN6Garden5PlantES3_EC1B8ue170006IS3_S3_LPv0EEEOT_OT0_, symObjAddr: 0x2DC0, symBinAddr: 0x100003C40, symSize: 0x30 }
  - { offsetInCU: 0xCE11, offset: 0xCE11, size: 0x8, addend: 0x0, symName: __ZNSt3__14pairIPN6Garden5PlantES3_EC2B8ue170006IS3_S3_LPv0EEEOT_OT0_, symObjAddr: 0x2DF0, symBinAddr: 0x100003C70, symSize: 0x30 }
  - { offsetInCU: 0xCE6E, offset: 0xCE6E, size: 0x8, addend: 0x0, symName: __ZNSt3__118__unwrap_iter_implIPN6Garden5PlantELb1EE8__rewrapB8ue170006ES3_S3_, symObjAddr: 0x2E20, symBinAddr: 0x100003CA0, symSize: 0x60 }
  - { offsetInCU: 0xCE9F, offset: 0xCE9F, size: 0x8, addend: 0x0, symName: __ZNKSt3__112basic_stringIcNS_11char_traitsIcEENS_9allocatorIcEEE4dataB8ue170006Ev, symObjAddr: 0x3070, symBinAddr: 0x100003EF0, symSize: 0x30 }
  - { offsetInCU: 0xCEC4, offset: 0xCEC4, size: 0x8, addend: 0x0, symName: __ZNKSt3__112basic_stringIcNS_11char_traitsIcEENS_9allocatorIcEEE4sizeB8ue170006Ev, symObjAddr: 0x30A0, symBinAddr: 0x100003F20, symSize: 0x50 }
  - { offsetInCU: 0xCF07, offset: 0xCF07, size: 0x8, addend: 0x0, symName: __ZNKSt3__113basic_ostreamIcNS_11char_traitsIcEEE6sentrycvbB8ue170006Ev, symObjAddr: 0x30F0, symBinAddr: 0x100003F70, symSize: 0x20 }
  - { offsetInCU: 0xCF2C, offset: 0xCF2C, size: 0x8, addend: 0x0, symName: __ZNSt3__119ostreambuf_iteratorIcNS_11char_traitsIcEEEC1B8ue170006ERNS_13basic_ostreamIcS2_EE, symObjAddr: 0x3330, symBinAddr: 0x1000041B0, symSize: 0x30 }
  - { offsetInCU: 0xCF62, offset: 0xCF62, size: 0x8, addend: 0x0, symName: __ZNKSt3__18ios_base5flagsB8ue170006Ev, symObjAddr: 0x3360, symBinAddr: 0x1000041E0, symSize: 0x20 }
  - { offsetInCU: 0xCF88, offset: 0xCF88, size: 0x8, addend: 0x0, symName: __ZNKSt3__19basic_iosIcNS_11char_traitsIcEEE4fillB8ue170006Ev, symObjAddr: 0x3380, symBinAddr: 0x100004200, symSize: 0x70 }
  - { offsetInCU: 0xCFAF, offset: 0xCFAF, size: 0x8, addend: 0x0, symName: __ZNKSt3__119ostreambuf_iteratorIcNS_11char_traitsIcEEE6failedB8ue170006Ev, symObjAddr: 0x33F0, symBinAddr: 0x100004270, symSize: 0x20 }
  - { offsetInCU: 0xCFD4, offset: 0xCFD4, size: 0x8, addend: 0x0, symName: __ZNSt3__19basic_iosIcNS_11char_traitsIcEEE8setstateB8ue170006Ej, symObjAddr: 0x3410, symBinAddr: 0x100004290, symSize: 0x30 }
  - { offsetInCU: 0xD007, offset: 0xD007, size: 0x8, addend: 0x0, symName: __ZNKSt3__18ios_base5widthB8ue170006Ev, symObjAddr: 0x3440, symBinAddr: 0x1000042C0, symSize: 0x20 }
  - { offsetInCU: 0xD02E, offset: 0xD02E, size: 0x8, addend: 0x0, symName: __ZNSt3__115basic_streambufIcNS_11char_traitsIcEEE5sputnB8ue170006EPKcl, symObjAddr: 0x3460, symBinAddr: 0x1000042E0, symSize: 0x30 }
  - { offsetInCU: 0xD06F, offset: 0xD06F, size: 0x8, addend: 0x0, symName: __ZNSt3__112basic_stringIcNS_11char_traitsIcEENS_9allocatorIcEEEC1B8ue170006Emc, symObjAddr: 0x3490, symBinAddr: 0x100004310, symSize: 0x30 }
  - { offsetInCU: 0xD0B5, offset: 0xD0B5, size: 0x8, addend: 0x0, symName: __ZNSt3__18ios_base5widthB8ue170006El, symObjAddr: 0x34C0, symBinAddr: 0x100004340, symSize: 0x30 }
  - { offsetInCU: 0xD0FA, offset: 0xD0FA, size: 0x8, addend: 0x0, symName: __ZNSt3__112basic_stringIcNS_11char_traitsIcEENS_9allocatorIcEEEC2B8ue170006Emc, symObjAddr: 0x34F0, symBinAddr: 0x100004370, symSize: 0x50 }
  - { offsetInCU: 0xD141, offset: 0xD141, size: 0x8, addend: 0x0, symName: __ZNSt3__119ostreambuf_iteratorIcNS_11char_traitsIcEEEC2B8ue170006ERNS_13basic_ostreamIcS2_EE, symObjAddr: 0x3540, symBinAddr: 0x1000043C0, symSize: 0x50 }
  - { offsetInCU: 0xD177, offset: 0xD177, size: 0x8, addend: 0x0, symName: __ZNKSt3__19basic_iosIcNS_11char_traitsIcEEE5rdbufB8ue170006Ev, symObjAddr: 0x3590, symBinAddr: 0x100004410, symSize: 0x20 }
  - { offsetInCU: 0xD19E, offset: 0xD19E, size: 0x8, addend: 0x0, symName: __ZNKSt3__18ios_base5rdbufB8ue170006Ev, symObjAddr: 0x35B0, symBinAddr: 0x100004430, symSize: 0x20 }
  - { offsetInCU: 0xD1C3, offset: 0xD1C3, size: 0x8, addend: 0x0, symName: __ZNSt3__111char_traitsIcE11eq_int_typeB8ue170006Eii, symObjAddr: 0x35D0, symBinAddr: 0x100004450, symSize: 0x20 }
  - { offsetInCU: 0xD1F6, offset: 0xD1F6, size: 0x8, addend: 0x0, symName: __ZNSt3__111char_traitsIcE3eofB8ue170006Ev, symObjAddr: 0x35F0, symBinAddr: 0x100004470, symSize: 0x10 }
  - { offsetInCU: 0xD209, offset: 0xD209, size: 0x8, addend: 0x0, symName: __ZNKSt3__19basic_iosIcNS_11char_traitsIcEEE5widenB8ue170006Ec, symObjAddr: 0x3600, symBinAddr: 0x100004480, symSize: 0x80 }
  - { offsetInCU: 0xD276, offset: 0xD276, size: 0x8, addend: 0x0, symName: __ZNKSt3__15ctypeIcE5widenB8ue170006Ec, symObjAddr: 0x36B0, symBinAddr: 0x100004530, symSize: 0x30 }
  - { offsetInCU: 0xD2A9, offset: 0xD2A9, size: 0x8, addend: 0x0, symName: __ZNSt3__18ios_base8setstateB8ue170006Ej, symObjAddr: 0x36E0, symBinAddr: 0x100004560, symSize: 0x30 }
  - { offsetInCU: 0xD2DF, offset: 0xD2DF, size: 0x8, addend: 0x0, symName: __ZNKSt3__112basic_stringIcNS_11char_traitsIcEENS_9allocatorIcEEE13__get_pointerB8ue170006Ev, symObjAddr: 0x3720, symBinAddr: 0x1000045A0, symSize: 0x50 }
  - { offsetInCU: 0xD304, offset: 0xD304, size: 0x8, addend: 0x0, symName: __ZNKSt3__112basic_stringIcNS_11char_traitsIcEENS_9allocatorIcEEE18__get_long_pointerB8ue170006Ev, symObjAddr: 0x3770, symBinAddr: 0x1000045F0, symSize: 0x20 }
  - { offsetInCU: 0xD329, offset: 0xD329, size: 0x8, addend: 0x0, symName: __ZNKSt3__112basic_stringIcNS_11char_traitsIcEENS_9allocatorIcEEE19__get_short_pointerB8ue170006Ev, symObjAddr: 0x3790, symBinAddr: 0x100004610, symSize: 0x30 }
  - { offsetInCU: 0xD34E, offset: 0xD34E, size: 0x8, addend: 0x0, symName: __ZNSt3__114pointer_traitsIPKcE10pointer_toB8ue170006ERS1_, symObjAddr: 0x37C0, symBinAddr: 0x100004640, symSize: 0x10 }
  - { offsetInCU: 0xD371, offset: 0xD371, size: 0x8, addend: 0x0, symName: __ZNKSt3__112basic_stringIcNS_11char_traitsIcEENS_9allocatorIcEEE15__get_long_sizeB8ue170006Ev, symObjAddr: 0x37D0, symBinAddr: 0x100004650, symSize: 0x20 }
  - { offsetInCU: 0xD396, offset: 0xD396, size: 0x8, addend: 0x0, symName: __ZNKSt3__112basic_stringIcNS_11char_traitsIcEENS_9allocatorIcEEE16__get_short_sizeB8ue170006Ev, symObjAddr: 0x37F0, symBinAddr: 0x100004670, symSize: 0x30 }
  - { offsetInCU: 0xD3BB, offset: 0xD3BB, size: 0x8, addend: 0x0, symName: __ZNSt3__111char_traitsIcE6lengthB8ue170006EPKc, symObjAddr: 0x3820, symBinAddr: 0x1000046A0, symSize: 0x30 }
  - { offsetInCU: 0x54FE, offset: 0x129C1, size: 0x8, addend: 0x0, symName: _main, symObjAddr: 0x0, symBinAddr: 0x1000046F0, symSize: 0x200 }
  - { offsetInCU: 0x554B, offset: 0x12A0E, size: 0x8, addend: 0x0, symName: __ZNSt3__112basic_stringIcNS_11char_traitsIcEENS_9allocatorIcEEEaSB8ue170006EPKc, symObjAddr: 0x220, symBinAddr: 0x1000048F0, symSize: 0x30 }
  - { offsetInCU: 0x5583, offset: 0x12A46, size: 0x8, addend: 0x0, symName: __ZN6GardenD1Ev, symObjAddr: 0x330, symBinAddr: 0x100004920, symSize: 0x20 }
  - { offsetInCU: 0x55AE, offset: 0x12A71, size: 0x8, addend: 0x0, symName: __ZN6GardenD2Ev, symObjAddr: 0x940, symBinAddr: 0x100004940, symSize: 0x20 }
  - { offsetInCU: 0x55DA, offset: 0x12A9D, size: 0x8, addend: 0x0, symName: __ZNSt3__16vectorIN6Garden5PlantENS_9allocatorIS2_EEED1B8ue170006Ev, symObjAddr: 0x960, symBinAddr: 0x100004960, symSize: 0x20 }
  - { offsetInCU: 0x5603, offset: 0x12AC6, size: 0x8, addend: 0x0, symName: __ZNSt3__16vectorIN6Garden5PlantENS_9allocatorIS2_EEED2B8ue170006Ev, symObjAddr: 0x980, symBinAddr: 0x100004980, symSize: 0x40 }
  - { offsetInCU: 0x562C, offset: 0x12AEF, size: 0x8, addend: 0x0, symName: __ZNSt3__16vectorIN6Garden5PlantENS_9allocatorIS2_EEE16__destroy_vectorC1B8ue170006ERS5_, symObjAddr: 0x9C0, symBinAddr: 0x1000049C0, symSize: 0x30 }
  - { offsetInCU: 0x5664, offset: 0x12B27, size: 0x8, addend: 0x0, symName: __ZNSt3__16vectorIN6Garden5PlantENS_9allocatorIS2_EEE16__destroy_vectorclB8ue170006Ev, symObjAddr: 0x9F0, symBinAddr: 0x1000049F0, symSize: 0x80 }
  - { offsetInCU: 0x5689, offset: 0x12B4C, size: 0x8, addend: 0x0, symName: __ZNSt3__16vectorIN6Garden5PlantENS_9allocatorIS2_EEE16__destroy_vectorC2B8ue170006ERS5_, symObjAddr: 0xA70, symBinAddr: 0x100004A70, symSize: 0x20 }
  - { offsetInCU: 0x56C1, offset: 0x12B84, size: 0x8, addend: 0x0, symName: __ZNSt3__16vectorIN6Garden5PlantENS_9allocatorIS2_EEE7__clearB8ue170006Ev, symObjAddr: 0xA90, symBinAddr: 0x100004A90, symSize: 0x20 }
...
